; Function Attrs: nounwind sspstrong uwtable
define internal i64 @ripper_token(i64 noundef %0) #0 {
  %2 = tail call ptr @rb_check_typeddata(i64 noundef %0, ptr noundef nonnull @parser_data_type) #5
  %3 = load ptr, ptr %2, align 8, !tbaa !18
  %4 = tail call i32 @rb_ruby_ripper_initialized_p(ptr noundef %3) #5
  %.not.i = icmp eq i32 %4, 0
  br i1 %.not.i, label %5, label %ripper_parser_params.exit

5:                                                ; preds = %1
  %6 = load i64, ptr @rb_eArgError, align 8, !tbaa !6
  tail call void (i64, ptr, ...) @rb_raise(i64 noundef %6, ptr noundef nonnull @.str.45) #6
  unreachable

ripper_parser_params.exit:                        ; preds = %1
  %7 = tail call i64 @rb_ruby_parser_parsing_thread(ptr noundef %3) #5
  %8 = icmp eq i64 %7, 4
  br i1 %8, label %15, label %9

9:                                                ; preds = %ripper_parser_params.exit
  %10 = tail call i64 @rb_ruby_ripper_column(ptr noundef %3) #5
  %11 = tail call i64 @rb_ruby_ripper_token_len(ptr noundef %3) #5
  %12 = tail call ptr @rb_ruby_ripper_lex_lastline(ptr noundef %3) #5
  %13 = tail call i64 @rb_str_new_parser_string(ptr noundef %12) #5
  %14 = tail call i64 @rb_str_subseq(i64 noundef %13, i64 noundef %10, i64 noundef %11) #5
  br label %15

15:                                               ; preds = %ripper_parser_params.exit, %9
  %.0 = phi i64 [ %14, %9 ], [ 4, %ripper_parser_params.exit ]
  ret i64 %.0
}